; Function Attrs: nounwind uwtable
define ptr @l_Lean_Server_FileWorker_collectInfoBasedSemanticTokens(ptr noundef %0) local_unnamed_addr #0 {
  %2 = load ptr, ptr @l_Lean_Server_FileWorker_collectInfoBasedSemanticTokens___closed__1, align 8, !tbaa !11
  tail call void @lean_inc_heartbeat() #7
  %3 = tail call noalias ptr @mi_malloc_small(i64 noundef 32) #7
  %4 = icmp eq ptr %3, null
  br i1 %4, label %5, label %l_Lean_Elab_InfoTree_deepestNodesM___at_Lean_Server_FileWorker_collectInfoBasedSemanticTokens___spec__1.exit

5:                                                ; preds = %1
  tail call void @lean_internal_panic_out_of_memory() #8
  unreachable

l_Lean_Elab_InfoTree_deepestNodesM___at_Lean_Server_FileWorker_collectInfoBasedSemanticTokens___spec__1.exit: ; preds = %1
  %6 = getelementptr inbounds nuw i8, ptr %3, i64 4
  store i32 1, ptr %3, align 4, !tbaa !8
  store i32 -184549344, ptr %6, align 4
  %7 = getelementptr inbounds nuw i8, ptr %3, i64 8
  store ptr @l_Lean_Elab_InfoTree_deepestNodesM___at_Lean_Server_FileWorker_collectInfoBasedSemanticTokens___spec__1___lambda__1___boxed, ptr %7, align 8, !tbaa !11
  %8 = getelementptr inbounds nuw i8, ptr %3, i64 16
  store i16 5, ptr %8, align 8, !tbaa !19
  %9 = getelementptr inbounds nuw i8, ptr %3, i64 18
  store i16 1, ptr %9, align 2, !tbaa !19
  %10 = getelementptr inbounds nuw i8, ptr %3, i64 24
  store ptr %2, ptr %10, align 8, !tbaa !11
  %11 = tail call ptr @l_Lean_Elab_InfoTree_collectNodesBottomUpM___at_Lean_Server_FileWorker_collectInfoBasedSemanticTokens___spec__2(ptr noundef nonnull %3, ptr noundef %0)
  %12 = tail call ptr @lean_array_mk(ptr noundef %11) #7
  ret ptr %12
}